; Function Attrs: mustprogress uwtable
define void @_ZN2cv9normalizeERKNS_9SparseMatERS0_di(ptr noundef nonnull align 8 dereferenceable(16) %0, ptr noundef nonnull align 8 dereferenceable(16) %1, double noundef %2, i32 noundef %3) local_unnamed_addr #0 personality ptr @__gxx_personality_v0 {
  %5 = alloca %"class.cv::utils::trace::details::Region", align 8
  %6 = alloca %"class.std::__cxx11::basic_string", align 8
  %7 = alloca %"class.std::allocator.5", align 1
  call void @llvm.lifetime.start.p0(i64 16, ptr nonnull %5) #26
  call void @_ZN2cv5utils5trace7details6RegionC1ERKNS3_21LocationStaticStorageE(ptr noundef nonnull align 8 dereferenceable(12) %5, ptr noundef nonnull align 8 dereferenceable(32) @_ZZN2cv9normalizeERKNS_9SparseMatERS0_diE25__cv_trace_location_fn845)
  switch i32 %3, label %16 [
    i32 4, label %8
    i32 2, label %8
    i32 1, label %8
  ]

8:                                                ; preds = %4, %4, %4
  %9 = invoke noundef double @_ZN2cv4normERKNS_9SparseMatEi(ptr noundef nonnull align 8 dereferenceable(16) %0, i32 noundef %3)
          to label %10 unwind label %14

10:                                               ; preds = %8
  %11 = fcmp ogt double %9, 0x3CB0000000000000
  %12 = fdiv double %2, %9
  %13 = select i1 %11, double %12, double 0.000000e+00
  invoke void @_ZNK2cv9SparseMat9convertToERS0_id(ptr noundef nonnull align 8 dereferenceable(16) %0, ptr noundef nonnull align 8 dereferenceable(16) %1, i32 noundef -1, double noundef %13)
          to label %29 unwind label %14

14:                                               ; preds = %10, %8
  %15 = landingpad { ptr, i32 }
          cleanup
  br label %36

16:                                               ; preds = %4
  call void @llvm.lifetime.start.p0(i64 32, ptr nonnull %6) #26
  call void @llvm.lifetime.start.p0(i64 1, ptr nonnull %7) #26
  invoke void @_ZNSt7__cxx1112basic_stringIcSt11char_traitsIcESaIcEEC2EPKcRKS3_(ptr noundef nonnull align 8 dereferenceable(32) %6, ptr noundef nonnull @.str.15, ptr noundef nonnull align 1 dereferenceable(1) %7)
          to label %17 unwind label %19

17:                                               ; preds = %16
  invoke void @_ZN2cv5errorEiRKNSt7__cxx1112basic_stringIcSt11char_traitsIcESaIcEEEPKcS9_i(i32 noundef -5, ptr noundef nonnull align 8 dereferenceable(32) %6, ptr noundef nonnull @__func__._ZN2cv9normalizeERKNS_9SparseMatERS0_di, ptr noundef nonnull @.str.1, i32 noundef 854) #25
          to label %18 unwind label %21

18:                                               ; preds = %17
  unreachable

19:                                               ; preds = %16
  %20 = landingpad { ptr, i32 }
          cleanup
  br label %_ZNSt7__cxx1112basic_stringIcSt11char_traitsIcESaIcEED2Ev.exit

21:                                               ; preds = %17
  %22 = landingpad { ptr, i32 }
          cleanup
  %23 = load ptr, ptr %6, align 8, !tbaa !37
  %24 = getelementptr inbounds nuw i8, ptr %6, i64 16
  %25 = icmp eq ptr %23, %24
  br i1 %25, label %_ZNKSt7__cxx1112basic_stringIcSt11char_traitsIcESaIcEE11_M_is_localEv.exit.thread.i.i, label %_ZNKSt7__cxx1112basic_stringIcSt11char_traitsIcESaIcEE11_M_is_localEv.exit.i.i

_ZNKSt7__cxx1112basic_stringIcSt11char_traitsIcESaIcEE11_M_is_localEv.exit.thread.i.i: ; preds = %21
  %26 = getelementptr inbounds nuw i8, ptr %6, i64 8
  %27 = load i64, ptr %26, align 8, !tbaa !40
  %28 = icmp ult i64 %27, 16
  call void @llvm.assume(i1 %28)
  br label %_ZNSt7__cxx1112basic_stringIcSt11char_traitsIcESaIcEED2Ev.exit

_ZNKSt7__cxx1112basic_stringIcSt11char_traitsIcESaIcEE11_M_is_localEv.exit.i.i: ; preds = %21
  call void @_ZdlPv(ptr noundef %23) #24
  br label %_ZNSt7__cxx1112basic_stringIcSt11char_traitsIcESaIcEED2Ev.exit

_ZNSt7__cxx1112basic_stringIcSt11char_traitsIcESaIcEED2Ev.exit: ; preds = %_ZNKSt7__cxx1112basic_stringIcSt11char_traitsIcESaIcEE11_M_is_localEv.exit.i.i, %_ZNKSt7__cxx1112basic_stringIcSt11char_traitsIcESaIcEE11_M_is_localEv.exit.thread.i.i, %19
  %.pn = phi { ptr, i32 } [ %20, %19 ], [ %22, %_ZNKSt7__cxx1112basic_stringIcSt11char_traitsIcESaIcEE11_M_is_localEv.exit.thread.i.i ], [ %22, %_ZNKSt7__cxx1112basic_stringIcSt11char_traitsIcESaIcEE11_M_is_localEv.exit.i.i ]
  call void @llvm.lifetime.end.p0(i64 1, ptr nonnull %7) #26
  call void @llvm.lifetime.end.p0(i64 32, ptr nonnull %6) #26
  br label %36

29:                                               ; preds = %10
  %30 = getelementptr inbounds nuw i8, ptr %5, i64 8
  %31 = load i32, ptr %30, align 8, !tbaa !103
  %.not.i = icmp eq i32 %31, 0
  br i1 %.not.i, label %_ZN2cv5utils5trace7details6RegionD2Ev.exit, label %32

32:                                               ; preds = %29
  invoke void @_ZN2cv5utils5trace7details6Region7destroyEv(ptr noundef nonnull align 8 dereferenceable(12) %5)
          to label %_ZN2cv5utils5trace7details6RegionD2Ev.exit unwind label %33

33:                                               ; preds = %32
  %34 = landingpad { ptr, i32 }
          catch ptr null
  %35 = extractvalue { ptr, i32 } %34, 0
  call void @__clang_call_terminate(ptr %35) #27
  unreachable

_ZN2cv5utils5trace7details6RegionD2Ev.exit:       ; preds = %29, %32
  call void @llvm.lifetime.end.p0(i64 16, ptr nonnull %5) #26
  ret void

36:                                               ; preds = %_ZNSt7__cxx1112basic_stringIcSt11char_traitsIcESaIcEED2Ev.exit, %14
  %.pn18 = phi { ptr, i32 } [ %15, %14 ], [ %.pn, %_ZNSt7__cxx1112basic_stringIcSt11char_traitsIcESaIcEED2Ev.exit ]
  call void @_ZN2cv5utils5trace7details6RegionD2Ev(ptr noundef nonnull align 8 dereferenceable(12) %5) #26
  call void @llvm.lifetime.end.p0(i64 16, ptr nonnull %5) #26
  resume { ptr, i32 } %.pn18
}